target datalayout = "e-m:e-p270:32:32-p271:32:32-p272:64:64-i64:64-i128:128-f80:128-n8:16:32:64-S128"
target triple = "x86_64-pc-linux-gnu"

%struct.H5T_vlen_alloc_info_t = type { ptr, ptr, ptr, ptr }
%struct.H5_user_cb_state_t = type { %struct.H5E_user_cb_state_t }
%struct.H5E_user_cb_state_t = type { i32, %union.anon.12, ptr }
%union.anon.12 = type { ptr }

@H5_libterm_g = external global i8, align 1
@.str = private unnamed_addr constant [101 x i8] c"generated/home/dtcxzyw/WorkSpace/Projects/compilers/llvm-opt-benchmark/bench/hdf5/hdf5/src/H5Tvlen.c\00", align 1
@H5T_init_g = external global i8, align 1
@H5E_CANTSET_g = external global i64, align 8
@H5E_DATATYPE_g = external global i64, align 8
@H5E_CANTALLOC_g = external global i64, align 8
@H5E_LIB_g = external global i64, align 8
@.str.21 = private unnamed_addr constant [37 x i8] c"preparation for user callback failed\00", align 1
@H5E_CANTRESTORE_g = external global i64, align 8
@.str.22 = private unnamed_addr constant [57 x i8] c"application memory allocation routine failed for VL data\00", align 1
@.str.23 = private unnamed_addr constant [37 x i8] c"memory allocation failed for VL data\00", align 1
@__func__.H5T__vlen_mem_str_write = private unnamed_addr constant [24 x i8] c"H5T__vlen_mem_str_write\00", align 1

; Function Attrs: nounwind uwtable
define internal i32 @H5T__vlen_mem_str_write(ptr noundef %0, ptr noundef %1, ptr noundef %2, ptr noundef %3, ptr noundef %4, i64 noundef %5, i64 noundef %6) #0 {
  %8 = alloca i32, align 4
  %9 = alloca ptr, align 8
  %10 = alloca ptr, align 8
  %11 = alloca ptr, align 8
  %12 = alloca ptr, align 8
  %13 = alloca ptr, align 8
  %14 = alloca i64, align 8
  %15 = alloca i64, align 8
  %16 = alloca ptr, align 8
  %17 = alloca i64, align 8
  %18 = alloca i32, align 4
  %19 = alloca i8, align 1
  %20 = alloca %struct.H5_user_cb_state_t, align 8
  %21 = alloca i32, align 4
  store ptr %0, ptr %9, align 8, !tbaa !30
  store ptr %1, ptr %10, align 8, !tbaa !38
  store ptr %2, ptr %11, align 8, !tbaa !38
  store ptr %3, ptr %12, align 8, !tbaa !38
  store ptr %4, ptr %13, align 8, !tbaa !38
  store i64 %5, ptr %14, align 8, !tbaa !3
  store i64 %6, ptr %15, align 8, !tbaa !3
  call void @llvm.lifetime.start.p0(i64 8, ptr %16) #9
  call void @llvm.lifetime.start.p0(i64 8, ptr %17) #9
  call void @llvm.lifetime.start.p0(i64 4, ptr %18) #9
  store i32 0, ptr %18, align 4, !tbaa !31
  call void @llvm.lifetime.start.p0(i64 1, ptr %19) #9
  store i8 0, ptr %19, align 1, !tbaa !10
  %22 = load i8, ptr @H5T_init_g, align 1, !tbaa !10, !range !12, !noundef !13
  %23 = trunc i8 %22 to i1
  br i1 %23, label %28, label %24

24:                                               ; preds = %7
  %25 = load i8, ptr @H5_libterm_g, align 1, !tbaa !10, !range !12, !noundef !13
  %26 = trunc i8 %25 to i1
  %27 = xor i1 %26, true
  br label %28

28:                                               ; preds = %24, %7
  %29 = phi i1 [ true, %7 ], [ %27, %24 ]
  %30 = xor i1 %29, true
  %31 = xor i1 %30, true
  %32 = zext i1 %31 to i32
  %33 = sext i32 %32 to i64
  %34 = call i64 @llvm.expect.i64(i64 %33, i64 1)
  %35 = icmp ne i64 %34, 0
  br i1 %35, label %36, label %161

36:                                               ; preds = %28
  %37 = load ptr, ptr %10, align 8, !tbaa !38
  %38 = getelementptr inbounds nuw %struct.H5T_vlen_alloc_info_t, ptr %37, i32 0, i32 0
  %39 = load ptr, ptr %38, align 8, !tbaa !58
  %40 = icmp ne ptr %39, null
  br i1 %40, label %41, label %122

41:                                               ; preds = %36
  call void @llvm.lifetime.start.p0(i64 24, ptr %20) #9
  %42 = call i32 @H5_user_cb_prepare(ptr noundef %20)
  %43 = icmp slt i32 %42, 0
  br i1 %43, label %44, label %63

44:                                               ; preds = %41
  br label %45

45:                                               ; preds = %44
  br label %46

46:                                               ; preds = %45
  br label %47

47:                                               ; preds = %46
  %48 = load i64, ptr @H5E_LIB_g, align 8, !tbaa !3
  %49 = load i64, ptr @H5E_CANTSET_g, align 8, !tbaa !3
  %50 = call i32 (ptr, ptr, i32, i64, i64, ptr, ...) @H5E_printf_stack(ptr noundef @.str, ptr noundef @__func__.H5T__vlen_mem_str_write, i32 noundef 682, i64 noundef %48, i64 noundef %49, ptr noundef @.str.21)
  br label %51

51:                                               ; preds = %47
  br label %52

52:                                               ; preds = %51
  store i8 1, ptr %19, align 1, !tbaa !10
  %53 = load i8, ptr %19, align 1, !tbaa !10, !range !12, !noundef !13
  %54 = trunc i8 %53 to i1
  %55 = zext i1 %54 to i8
  store i8 %55, ptr %19, align 1, !tbaa !10
  br label %56

56:                                               ; preds = %52
  br label %57

57:                                               ; preds = %56
  br label %58

58:                                               ; preds = %57
  store i32 -1, ptr %18, align 4, !tbaa !31
  store i32 10, ptr %21, align 4
  br label %97

59:                                               ; No predecessors!
  br label %60

60:                                               ; preds = %59
  br label %61

61:                                               ; preds = %60
  br label %62

62:                                               ; preds = %61
  br label %63

63:                                               ; preds = %62, %41
  %64 = load ptr, ptr %10, align 8, !tbaa !38
  %65 = getelementptr inbounds nuw %struct.H5T_vlen_alloc_info_t, ptr %64, i32 0, i32 0
  %66 = load ptr, ptr %65, align 8, !tbaa !58
  %67 = load i64, ptr %14, align 8, !tbaa !3
  %68 = add i64 %67, 1
  %69 = load i64, ptr %15, align 8, !tbaa !3
  %70 = mul i64 %68, %69
  %71 = load ptr, ptr %10, align 8, !tbaa !38
  %72 = getelementptr inbounds nuw %struct.H5T_vlen_alloc_info_t, ptr %71, i32 0, i32 1
  %73 = load ptr, ptr %72, align 8, !tbaa !59
  %74 = call ptr %66(i64 noundef %70, ptr noundef %73)
  store ptr %74, ptr %16, align 8, !tbaa !53
  %75 = call i32 @H5_user_cb_restore(ptr noundef %20)
  %76 = icmp slt i32 %75, 0
  br i1 %76, label %77, label %96

77:                                               ; preds = %63
  br label %78

78:                                               ; preds = %77
  br label %79

79:                                               ; preds = %78
  br label %80

80:                                               ; preds = %79
  %81 = load i64, ptr @H5E_LIB_g, align 8, !tbaa !3
  %82 = load i64, ptr @H5E_CANTRESTORE_g, align 8, !tbaa !3
  %83 = call i32 (ptr, ptr, i32, i64, i64, ptr, ...) @H5E_printf_stack(ptr noundef @.str, ptr noundef @__func__.H5T__vlen_mem_str_write, i32 noundef 686, i64 noundef %81, i64 noundef %82, ptr noundef @.str.21)
  br label %84

84:                                               ; preds = %80
  br label %85

85:                                               ; preds = %84
  store i8 1, ptr %19, align 1, !tbaa !10
  %86 = load i8, ptr %19, align 1, !tbaa !10, !range !12, !noundef !13
  %87 = trunc i8 %86 to i1
  %88 = zext i1 %87 to i8
  store i8 %88, ptr %19, align 1, !tbaa !10
  br label %89

89:                                               ; preds = %85
  br label %90

90:                                               ; preds = %89
  br label %91

91:                                               ; preds = %90
  store i32 -1, ptr %18, align 4, !tbaa !31
  store i32 10, ptr %21, align 4
  br label %97

92:                                               ; No predecessors!
  br label %93

93:                                               ; preds = %92
  br label %94

94:                                               ; preds = %93
  br label %95

95:                                               ; preds = %94
  br label %96

96:                                               ; preds = %95, %63
  store i32 0, ptr %21, align 4
  br label %97

97:                                               ; preds = %91, %58, %96
  call void @llvm.lifetime.end.p0(i64 24, ptr %20) #9
  %98 = load i32, ptr %21, align 4
  switch i32 %98, label %163 [
    i32 0, label %99
    i32 10, label %160
  ]

99:                                               ; preds = %97
  %100 = load ptr, ptr %16, align 8, !tbaa !53
  %101 = icmp eq ptr null, %100
  br i1 %101, label %102, label %121

102:                                              ; preds = %99
  br label %103

103:                                              ; preds = %102
  br label %104

104:                                              ; preds = %103
  br label %105

105:                                              ; preds = %104
  %106 = load i64, ptr @H5E_DATATYPE_g, align 8, !tbaa !3
  %107 = load i64, ptr @H5E_CANTALLOC_g, align 8, !tbaa !3
  %108 = call i32 (ptr, ptr, i32, i64, i64, ptr, ...) @H5E_printf_stack(ptr noundef @.str, ptr noundef @__func__.H5T__vlen_mem_str_write, i32 noundef 689, i64 noundef %106, i64 noundef %107, ptr noundef @.str.22)
  br label %109

109:                                              ; preds = %105
  br label %110

110:                                              ; preds = %109
  store i8 1, ptr %19, align 1, !tbaa !10
  %111 = load i8, ptr %19, align 1, !tbaa !10, !range !12, !noundef !13
  %112 = trunc i8 %111 to i1
  %113 = zext i1 %112 to i8
  store i8 %113, ptr %19, align 1, !tbaa !10
  br label %114

114:                                              ; preds = %110
  br label %115

115:                                              ; preds = %114
  br label %116

116:                                              ; preds = %115
  store i32 -1, ptr %18, align 4, !tbaa !31
  br label %160

117:                                              ; No predecessors!
  br label %118

118:                                              ; preds = %117
  br label %119

119:                                              ; preds = %118
  br label %120

120:                                              ; preds = %119
  br label %121

121:                                              ; preds = %120, %99
  br label %149

122:                                              ; preds = %36
  %123 = load i64, ptr %14, align 8, !tbaa !3
  %124 = add i64 %123, 1
  %125 = load i64, ptr %15, align 8, !tbaa !3
  %126 = mul i64 %124, %125
  %127 = call noalias ptr @malloc(i64 noundef %126) #10
  store ptr %127, ptr %16, align 8, !tbaa !53
  %128 = icmp eq ptr null, %127
  br i1 %128, label %129, label %148

129:                                              ; preds = %122
  br label %130

130:                                              ; preds = %129
  br label %131

131:                                              ; preds = %130
  br label %132

132:                                              ; preds = %131
  %133 = load i64, ptr @H5E_DATATYPE_g, align 8, !tbaa !3
  %134 = load i64, ptr @H5E_CANTALLOC_g, align 8, !tbaa !3
  %135 = call i32 (ptr, ptr, i32, i64, i64, ptr, ...) @H5E_printf_stack(ptr noundef @.str, ptr noundef @__func__.H5T__vlen_mem_str_write, i32 noundef 693, i64 noundef %133, i64 noundef %134, ptr noundef @.str.23)
  br label %136

136:                                              ; preds = %132
  br label %137

137:                                              ; preds = %136
  store i8 1, ptr %19, align 1, !tbaa !10
  %138 = load i8, ptr %19, align 1, !tbaa !10, !range !12, !noundef !13
  %139 = trunc i8 %138 to i1
  %140 = zext i1 %139 to i8
  store i8 %140, ptr %19, align 1, !tbaa !10
  br label %141

141:                                              ; preds = %137
  br label %142

142:                                              ; preds = %141
  br label %143

143:                                              ; preds = %142
  store i32 -1, ptr %18, align 4, !tbaa !31
  br label %160

144:                                              ; No predecessors!
  br label %145

145:                                              ; preds = %144
  br label %146

146:                                              ; preds = %145
  br label %147

147:                                              ; preds = %146
  br label %148

148:                                              ; preds = %147, %122
  br label %149

149:                                              ; preds = %148, %121
  %150 = load i64, ptr %14, align 8, !tbaa !3
  %151 = load i64, ptr %15, align 8, !tbaa !3
  %152 = mul i64 %150, %151
  store i64 %152, ptr %17, align 8, !tbaa !3
  %153 = load ptr, ptr %16, align 8, !tbaa !53
  %154 = load ptr, ptr %12, align 8, !tbaa !38
  %155 = load i64, ptr %17, align 8, !tbaa !3
  call void @llvm.memcpy.p0.p0.i64(ptr align 1 %153, ptr align 1 %154, i64 %155, i1 false)
  %156 = load ptr, ptr %16, align 8, !tbaa !53
  %157 = load i64, ptr %17, align 8, !tbaa !3
  %158 = getelementptr inbounds nuw i8, ptr %156, i64 %157
  store i8 0, ptr %158, align 1, !tbaa !29
  %159 = load ptr, ptr %11, align 8, !tbaa !38
  call void @llvm.memcpy.p0.p0.i64(ptr align 1 %159, ptr align 8 %16, i64 8, i1 false)
  br label %160

160:                                              ; preds = %149, %97, %143, %116
  br label %161

161:                                              ; preds = %160, %28
  %162 = load i32, ptr %18, align 4, !tbaa !31
  store i32 %162, ptr %8, align 4
  store i32 1, ptr %21, align 4
  br label %163

163:                                              ; preds = %161, %97
  call void @llvm.lifetime.end.p0(i64 1, ptr %19) #9
  call void @llvm.lifetime.end.p0(i64 4, ptr %18) #9
  call void @llvm.lifetime.end.p0(i64 8, ptr %17) #9
  call void @llvm.lifetime.end.p0(i64 8, ptr %16) #9
  %164 = load i32, ptr %8, align 4
  ret i32 %164
}