; Function Attrs: nounwind uwtable
define internal range(i32 -1, 1) i32 @H5T__vlen_mem_str_write(ptr readnone captures(none) %0, ptr noundef readonly captures(none) %1, ptr noundef writeonly captures(none) %2, ptr noundef readonly captures(none) %3, ptr readnone captures(none) %4, i64 noundef %5, i64 noundef %6) #0 {
  %8 = alloca %struct.H5_user_cb_state_t, align 8
  %9 = load i8, ptr @H5T_init_g, align 1, !tbaa !3, !range !7, !noundef !8
  %10 = trunc nuw i8 %9 to i1
  %11 = load i8, ptr @H5_libterm_g, align 1, !range !7
  %12 = trunc nuw i8 %11 to i1
  %13 = xor i1 %12, true
  %14 = select i1 %10, i1 true, i1 %13
  br i1 %14, label %15, label %50, !prof !9

15:                                               ; preds = %7
  %16 = load ptr, ptr %1, align 8, !tbaa !54
  %.not = icmp eq ptr %16, null
  br i1 %.not, label %38, label %17

17:                                               ; preds = %15
  call void @llvm.lifetime.start.p0(i64 24, ptr nonnull %8) #13
  %18 = call i32 @H5_user_cb_prepare(ptr noundef nonnull %8) #13
  %19 = icmp slt i32 %18, 0
  br i1 %19, label %.thread, label %20

20:                                               ; preds = %17
  %21 = load ptr, ptr %1, align 8, !tbaa !54
  %22 = add i64 %5, 1
  %23 = mul i64 %22, %6
  %24 = getelementptr inbounds nuw i8, ptr %1, i64 8
  %25 = load ptr, ptr %24, align 8, !tbaa !55
  %26 = call ptr %21(i64 noundef %23, ptr noundef %25) #13
  %27 = call i32 @H5_user_cb_restore(ptr noundef nonnull %8) #13
  %28 = icmp slt i32 %27, 0
  br i1 %28, label %.thread, label %32

.thread:                                          ; preds = %20, %17
  %H5E_CANTSET_g.sink = phi ptr [ @H5E_CANTSET_g, %17 ], [ @H5E_CANTRESTORE_g, %20 ]
  %.sink = phi i32 [ 682, %17 ], [ 686, %20 ]
  %29 = load i64, ptr @H5E_LIB_g, align 8, !tbaa !11
  %30 = load i64, ptr %H5E_CANTSET_g.sink, align 8, !tbaa !11
  %31 = call i32 (ptr, ptr, i32, i64, i64, ptr, ...) @H5E_printf_stack(ptr noundef nonnull @.str, ptr noundef nonnull @__func__.H5T__vlen_mem_str_write, i32 noundef %.sink, i64 noundef %29, i64 noundef %30, ptr noundef nonnull @.str.21) #13
  call void @llvm.lifetime.end.p0(i64 24, ptr nonnull %8) #13
  br label %50

32:                                               ; preds = %20
  call void @llvm.lifetime.end.p0(i64 24, ptr nonnull %8) #13
  %33 = icmp eq ptr %26, null
  br i1 %33, label %34, label %47

34:                                               ; preds = %32
  %35 = load i64, ptr @H5E_DATATYPE_g, align 8, !tbaa !11
  %36 = load i64, ptr @H5E_CANTALLOC_g, align 8, !tbaa !11
  %37 = call i32 (ptr, ptr, i32, i64, i64, ptr, ...) @H5E_printf_stack(ptr noundef nonnull @.str, ptr noundef nonnull @__func__.H5T__vlen_mem_str_write, i32 noundef 689, i64 noundef %35, i64 noundef %36, ptr noundef nonnull @.str.22) #13
  br label %50

38:                                               ; preds = %15
  %39 = add i64 %5, 1
  %40 = mul i64 %39, %6
  %41 = tail call noalias ptr @malloc(i64 noundef %40) #14
  %42 = icmp eq ptr %41, null
  br i1 %42, label %43, label %47

43:                                               ; preds = %38
  %44 = load i64, ptr @H5E_DATATYPE_g, align 8, !tbaa !11
  %45 = load i64, ptr @H5E_CANTALLOC_g, align 8, !tbaa !11
  %46 = tail call i32 (ptr, ptr, i32, i64, i64, ptr, ...) @H5E_printf_stack(ptr noundef nonnull @.str, ptr noundef nonnull @__func__.H5T__vlen_mem_str_write, i32 noundef 693, i64 noundef %44, i64 noundef %45, ptr noundef nonnull @.str.23) #13
  br label %50

47:                                               ; preds = %38, %32
  %.125 = phi ptr [ %26, %32 ], [ %41, %38 ]
  %48 = mul i64 %6, %5
  call void @llvm.memcpy.p0.p0.i64(ptr nonnull align 1 %.125, ptr align 1 %3, i64 %48, i1 false)
  %49 = getelementptr inbounds nuw i8, ptr %.125, i64 %48
  store i8 0, ptr %49, align 1, !tbaa !32
  store ptr %.125, ptr %2, align 1
  br label %50

50:                                               ; preds = %.thread, %7, %47, %43, %34
  %.023 = phi i32 [ -1, %34 ], [ 0, %47 ], [ -1, %43 ], [ 0, %7 ], [ -1, %.thread ]
  ret i32 %.023
}